; Function Attrs: mustprogress uwtable
define internal fastcc void @"_ZZL29llama_model_quantize_internalRKNSt7__cxx1112basic_stringIcSt11char_traitsIcESaIcEEES6_PK27llama_model_quantize_paramsENK3$_0clEv"(ptr nocapture noundef nonnull readonly align 8 dereferenceable(64) %this) unnamed_addr #2 align 2 personality ptr @__gxx_personality_v0 {
entry:
  %local_hist = alloca %"struct.std::array", align 8
  call void @llvm.memset.p0.i64(ptr noundef nonnull align 8 dereferenceable(128) %local_hist, i8 0, i64 128, i1 false)
  %0 = getelementptr inbounds i8, ptr %this, i64 8
  %1 = getelementptr inbounds i8, ptr %this, i64 56
  %2 = getelementptr inbounds i8, ptr %this, i64 16
  %3 = getelementptr inbounds i8, ptr %this, i64 24
  %4 = getelementptr inbounds i8, ptr %this, i64 32
  %5 = getelementptr inbounds i8, ptr %this, i64 40
  %6 = getelementptr inbounds i8, ptr %this, i64 48
  %7 = load ptr, ptr %this, align 8
  %call1.i.i.i.i50 = tail call noundef i32 @pthread_mutex_lock(ptr noundef nonnull %7) #44
  %tobool.not.i.i.i51 = icmp eq i32 %call1.i.i.i.i50, 0
  br i1 %tobool.not.i.i.i51, label %_ZNSt11unique_lockISt5mutexEC2ERS0_.exit, label %if.then.i.i.i

if.then.i.i.i:                                    ; preds = %_ZNSt11unique_lockISt5mutexED2Ev.exit, %entry
  %call1.i.i.i.i.lcssa = phi i32 [ %call1.i.i.i.i50, %entry ], [ %call1.i.i.i.i, %_ZNSt11unique_lockISt5mutexED2Ev.exit ]
  call void @_ZSt20__throw_system_errori(i32 noundef %call1.i.i.i.i.lcssa) #47
  unreachable

_ZNSt11unique_lockISt5mutexEC2ERS0_.exit:         ; preds = %entry, %_ZNSt11unique_lockISt5mutexED2Ev.exit
  %8 = phi ptr [ %21, %_ZNSt11unique_lockISt5mutexED2Ev.exit ], [ %7, %entry ]
  %local_size.052 = phi i64 [ %add19, %_ZNSt11unique_lockISt5mutexED2Ev.exit ], [ 0, %entry ]
  %9 = load ptr, ptr %0, align 8
  %10 = load i64, ptr %9, align 8
  %add = add i64 %10, 16384
  store i64 %add, ptr %9, align 8
  %11 = load i64, ptr %1, align 8
  %cmp.not = icmp ult i64 %10, %11
  br i1 %cmp.not, label %if.else.i, label %if.then

if.then:                                          ; preds = %_ZNSt11unique_lockISt5mutexEC2ERS0_.exit
  %cmp2.not = icmp eq i64 %local_size.052, 0
  br i1 %cmp2.not, label %if.else.i.i, label %for.body

for.body:                                         ; preds = %if.then, %for.body
  %indvars.iv = phi i64 [ %indvars.iv.next, %for.body ], [ 0, %if.then ]
  %arrayidx.i.i = getelementptr inbounds [16 x i64], ptr %local_hist, i64 0, i64 %indvars.iv
  %12 = load i64, ptr %arrayidx.i.i, align 8
  %13 = load ptr, ptr %2, align 8
  %arrayidx.i.i9 = getelementptr inbounds [16 x i64], ptr %13, i64 0, i64 %indvars.iv
  %14 = load i64, ptr %arrayidx.i.i9, align 8
  %add9 = add nsw i64 %14, %12
  store i64 %add9, ptr %arrayidx.i.i9, align 8
  %indvars.iv.next = add nuw nsw i64 %indvars.iv, 1
  %exitcond.not = icmp eq i64 %indvars.iv.next, 16
  br i1 %exitcond.not, label %for.end, label %for.body, !llvm.loop !381

for.end:                                          ; preds = %for.body
  %15 = load ptr, ptr %3, align 8
  %16 = load i64, ptr %15, align 8
  %add10 = add i64 %16, %local_size.052
  store i64 %add10, ptr %15, align 8
  br label %if.else.i.i

if.else.i:                                        ; preds = %_ZNSt11unique_lockISt5mutexEC2ERS0_.exit
  %tobool2.not.i.not.not = icmp eq ptr %8, null
  br i1 %tobool2.not.i.not.not, label %_ZNSt11unique_lockISt5mutexED2Ev.exit, label %if.then3.i

if.then3.i:                                       ; preds = %if.else.i
  %call1.i.i.i = call noundef i32 @pthread_mutex_unlock(ptr noundef nonnull %8) #44
  %.pre = load i64, ptr %1, align 8
  br label %_ZNSt11unique_lockISt5mutexED2Ev.exit

if.else.i.i:                                      ; preds = %for.end, %if.then
  %tobool2.not.i.i = icmp eq ptr %8, null
  br i1 %tobool2.not.i.i, label %while.end, label %if.then3.i.i

if.then3.i.i:                                     ; preds = %if.else.i.i
  %call1.i.i.i.i13 = call noundef i32 @pthread_mutex_unlock(ptr noundef nonnull %8) #44
  br label %while.end

_ZNSt11unique_lockISt5mutexED2Ev.exit:            ; preds = %if.else.i, %if.then3.i
  %17 = phi i64 [ %.pre, %if.then3.i ], [ %11, %if.else.i ]
  %.sroa.speculated = call i64 @llvm.umin.i64(i64 %add, i64 %17)
  %18 = load i32, ptr %4, align 8
  %19 = load ptr, ptr %5, align 8
  %20 = load ptr, ptr %6, align 8
  %conv14 = trunc i64 %10 to i32
  %sub = sub i64 %.sroa.speculated, %10
  %conv15 = trunc i64 %sub to i32
  %call18 = call i64 @ggml_quantize_chunk(i32 noundef %18, ptr noundef %19, ptr noundef %20, i32 noundef %conv14, i32 noundef %conv15, ptr noundef nonnull %local_hist)
  %add19 = add i64 %call18, %local_size.052
  %21 = load ptr, ptr %this, align 8
  %call1.i.i.i.i = call noundef i32 @pthread_mutex_lock(ptr noundef nonnull %21) #44
  %tobool.not.i.i.i = icmp eq i32 %call1.i.i.i.i, 0
  br i1 %tobool.not.i.i.i, label %_ZNSt11unique_lockISt5mutexEC2ERS0_.exit, label %if.then.i.i.i

while.end:                                        ; preds = %if.else.i.i, %if.then3.i.i
  ret void
}